target datalayout = "e-m:e-p270:32:32-p271:32:32-p272:64:64-i64:64-i128:128-f80:128-n8:16:32:64-S128"
target triple = "x86_64-pc-linux-gnu"

%"struct.Luau::CodeGen::IrOp" = type { i32 }

; Function Attrs: mustprogress uwtable
define dso_local void @_ZN4Luau7CodeGen18translateInstLoadBERNS0_9IrBuilderEPKji(ptr noundef nonnull align 8 dereferenceable(752) %0, ptr noundef %1, i32 noundef %2) #0 {
  %4 = alloca ptr, align 8
  %5 = alloca ptr, align 8
  %6 = alloca i32, align 4
  %7 = alloca i32, align 4
  %8 = alloca %"struct.Luau::CodeGen::IrOp", align 4
  %9 = alloca %"struct.Luau::CodeGen::IrOp", align 4
  %10 = alloca %"struct.Luau::CodeGen::IrOp", align 4
  %11 = alloca %"struct.Luau::CodeGen::IrOp", align 4
  %12 = alloca %"struct.Luau::CodeGen::IrOp", align 4
  %13 = alloca %"struct.Luau::CodeGen::IrOp", align 4
  %14 = alloca i32, align 4
  %15 = alloca %"struct.Luau::CodeGen::IrOp", align 4
  %16 = alloca %"struct.Luau::CodeGen::IrOp", align 4
  store ptr %0, ptr %4, align 8, !tbaa !4
  store ptr %1, ptr %5, align 8, !tbaa !9
  store i32 %2, ptr %6, align 4, !tbaa !11
  call void @llvm.lifetime.start.p0(i64 4, ptr %7) #13
  %17 = load ptr, ptr %5, align 8, !tbaa !9
  %18 = load i32, ptr %17, align 4, !tbaa !11
  %19 = lshr i32 %18, 8
  %20 = and i32 %19, 255
  store i32 %20, ptr %7, align 4, !tbaa !11
  %21 = load ptr, ptr %4, align 8, !tbaa !4
  %22 = load ptr, ptr %4, align 8, !tbaa !4
  %23 = load i32, ptr %7, align 4, !tbaa !11
  %24 = trunc i32 %23 to i8
  %25 = call i32 @_ZN4Luau7CodeGen9IrBuilder5vmRegEh(ptr noundef nonnull align 8 dereferenceable(752) %22, i8 noundef zeroext %24)
  %26 = getelementptr inbounds nuw %"struct.Luau::CodeGen::IrOp", ptr %8, i32 0, i32 0
  store i32 %25, ptr %26, align 4
  %27 = load ptr, ptr %4, align 8, !tbaa !4
  %28 = load ptr, ptr %5, align 8, !tbaa !9
  %29 = load i32, ptr %28, align 4, !tbaa !11
  %30 = lshr i32 %29, 16
  %31 = and i32 %30, 255
  %32 = call i32 @_ZN4Luau7CodeGen9IrBuilder8constIntEi(ptr noundef nonnull align 8 dereferenceable(752) %27, i32 noundef %31)
  %33 = getelementptr inbounds nuw %"struct.Luau::CodeGen::IrOp", ptr %9, i32 0, i32 0
  store i32 %32, ptr %33, align 4
  %34 = getelementptr inbounds nuw %"struct.Luau::CodeGen::IrOp", ptr %8, i32 0, i32 0
  %35 = load i32, ptr %34, align 4
  %36 = getelementptr inbounds nuw %"struct.Luau::CodeGen::IrOp", ptr %9, i32 0, i32 0
  %37 = load i32, ptr %36, align 4
  %38 = call i32 @_ZN4Luau7CodeGen9IrBuilder4instENS0_5IrCmdENS0_4IrOpES3_(ptr noundef nonnull align 8 dereferenceable(752) %21, i8 noundef zeroext 16, i32 %35, i32 %37)
  %39 = getelementptr inbounds nuw %"struct.Luau::CodeGen::IrOp", ptr %10, i32 0, i32 0
  store i32 %38, ptr %39, align 4
  %40 = load ptr, ptr %4, align 8, !tbaa !4
  %41 = load ptr, ptr %4, align 8, !tbaa !4
  %42 = load i32, ptr %7, align 4, !tbaa !11
  %43 = trunc i32 %42 to i8
  %44 = call i32 @_ZN4Luau7CodeGen9IrBuilder5vmRegEh(ptr noundef nonnull align 8 dereferenceable(752) %41, i8 noundef zeroext %43)
  %45 = getelementptr inbounds nuw %"struct.Luau::CodeGen::IrOp", ptr %11, i32 0, i32 0
  store i32 %44, ptr %45, align 4
  %46 = load ptr, ptr %4, align 8, !tbaa !4
  %47 = call i32 @_ZN4Luau7CodeGen9IrBuilder8constTagEh(ptr noundef nonnull align 8 dereferenceable(752) %46, i8 noundef zeroext 1)
  %48 = getelementptr inbounds nuw %"struct.Luau::CodeGen::IrOp", ptr %12, i32 0, i32 0
  store i32 %47, ptr %48, align 4
  %49 = getelementptr inbounds nuw %"struct.Luau::CodeGen::IrOp", ptr %11, i32 0, i32 0
  %50 = load i32, ptr %49, align 4
  %51 = getelementptr inbounds nuw %"struct.Luau::CodeGen::IrOp", ptr %12, i32 0, i32 0
  %52 = load i32, ptr %51, align 4
  %53 = call i32 @_ZN4Luau7CodeGen9IrBuilder4instENS0_5IrCmdENS0_4IrOpES3_(ptr noundef nonnull align 8 dereferenceable(752) %40, i8 noundef zeroext 12, i32 %50, i32 %52)
  %54 = getelementptr inbounds nuw %"struct.Luau::CodeGen::IrOp", ptr %13, i32 0, i32 0
  store i32 %53, ptr %54, align 4
  call void @llvm.lifetime.start.p0(i64 4, ptr %14) #13
  %55 = load ptr, ptr %5, align 8, !tbaa !9
  %56 = load i32, ptr %55, align 4, !tbaa !11
  %57 = lshr i32 %56, 24
  %58 = and i32 %57, 255
  store i32 %58, ptr %14, align 4, !tbaa !11
  %59 = load i32, ptr %14, align 4, !tbaa !11
  %60 = icmp ne i32 %59, 0
  br i1 %60, label %61, label %74

61:                                               ; preds = %3
  %62 = load ptr, ptr %4, align 8, !tbaa !4
  %63 = load ptr, ptr %4, align 8, !tbaa !4
  %64 = load i32, ptr %6, align 4, !tbaa !11
  %65 = add nsw i32 %64, 1
  %66 = load i32, ptr %14, align 4, !tbaa !11
  %67 = add nsw i32 %65, %66
  %68 = call i32 @_ZN4Luau7CodeGen9IrBuilder11blockAtInstEj(ptr noundef nonnull align 8 dereferenceable(752) %63, i32 noundef %67)
  %69 = getelementptr inbounds nuw %"struct.Luau::CodeGen::IrOp", ptr %15, i32 0, i32 0
  store i32 %68, ptr %69, align 4
  %70 = getelementptr inbounds nuw %"struct.Luau::CodeGen::IrOp", ptr %15, i32 0, i32 0
  %71 = load i32, ptr %70, align 4
  %72 = call i32 @_ZN4Luau7CodeGen9IrBuilder4instENS0_5IrCmdENS0_4IrOpE(ptr noundef nonnull align 8 dereferenceable(752) %62, i8 noundef zeroext 46, i32 %71)
  %73 = getelementptr inbounds nuw %"struct.Luau::CodeGen::IrOp", ptr %16, i32 0, i32 0
  store i32 %72, ptr %73, align 4
  br label %74

74:                                               ; preds = %61, %3
  call void @llvm.lifetime.end.p0(i64 4, ptr %14) #13
  call void @llvm.lifetime.end.p0(i64 4, ptr %7) #13
  ret void
}