; Function Attrs: mustprogress uwtable
define dso_local void @_ZN4Luau7CodeGen18translateInstLoadBERNS0_9IrBuilderEPKji(ptr noundef nonnull align 8 dereferenceable(752) %0, ptr noundef readonly captures(none) %1, i32 noundef %2) local_unnamed_addr #0 {
  %4 = load i32, ptr %1, align 4, !tbaa !4
  %5 = lshr i32 %4, 8
  %6 = trunc i32 %5 to i8
  %7 = tail call i32 @_ZN4Luau7CodeGen9IrBuilder5vmRegEh(ptr noundef nonnull align 8 dereferenceable(752) %0, i8 noundef zeroext %6)
  %8 = load i32, ptr %1, align 4, !tbaa !4
  %9 = lshr i32 %8, 16
  %10 = and i32 %9, 255
  %11 = tail call i32 @_ZN4Luau7CodeGen9IrBuilder8constIntEi(ptr noundef nonnull align 8 dereferenceable(752) %0, i32 noundef %10)
  %12 = tail call i32 @_ZN4Luau7CodeGen9IrBuilder4instENS0_5IrCmdENS0_4IrOpES3_(ptr noundef nonnull align 8 dereferenceable(752) %0, i8 noundef zeroext 16, i32 %7, i32 %11)
  %13 = tail call i32 @_ZN4Luau7CodeGen9IrBuilder5vmRegEh(ptr noundef nonnull align 8 dereferenceable(752) %0, i8 noundef zeroext %6)
  %14 = tail call i32 @_ZN4Luau7CodeGen9IrBuilder8constTagEh(ptr noundef nonnull align 8 dereferenceable(752) %0, i8 noundef zeroext 1)
  %15 = tail call i32 @_ZN4Luau7CodeGen9IrBuilder4instENS0_5IrCmdENS0_4IrOpES3_(ptr noundef nonnull align 8 dereferenceable(752) %0, i8 noundef zeroext 12, i32 %13, i32 %14)
  %16 = load i32, ptr %1, align 4, !tbaa !4
  %.not = icmp ult i32 %16, 16777216
  br i1 %.not, label %23, label %17

17:                                               ; preds = %3
  %18 = lshr i32 %16, 24
  %19 = add nsw i32 %2, 1
  %20 = add nsw i32 %19, %18
  %21 = tail call i32 @_ZN4Luau7CodeGen9IrBuilder11blockAtInstEj(ptr noundef nonnull align 8 dereferenceable(752) %0, i32 noundef %20)
  %22 = tail call i32 @_ZN4Luau7CodeGen9IrBuilder4instENS0_5IrCmdENS0_4IrOpE(ptr noundef nonnull align 8 dereferenceable(752) %0, i8 noundef zeroext 46, i32 %21)
  br label %23

23:                                               ; preds = %17, %3
  ret void
}